target datalayout = "e-m:e-p270:32:32-p271:32:32-p272:64:64-i64:64-i128:128-f80:128-n8:16:32:64-S128"
target triple = "x86_64-pc-linux-gnu"

%struct.lxb_html_parser_t = type { ptr, ptr, ptr, ptr, ptr, i32, i32, i64 }

; Function Attrs: nounwind uwtable
define hidden ptr @lxb_html_parser_destroy(ptr noundef %0) #0 {
  %2 = alloca ptr, align 8
  %3 = alloca ptr, align 8
  store ptr %0, ptr %3, align 8
  %4 = load ptr, ptr %3, align 8
  %5 = icmp eq ptr %4, null
  br i1 %5, label %6, label %7

6:                                                ; preds = %1
  store ptr null, ptr %2, align 8
  br label %22

7:                                                ; preds = %1
  %8 = load ptr, ptr %3, align 8
  %9 = getelementptr inbounds %struct.lxb_html_parser_t, ptr %8, i32 0, i32 0
  %10 = load ptr, ptr %9, align 8
  %11 = call ptr @lxb_html_tokenizer_unref(ptr noundef %10)
  %12 = load ptr, ptr %3, align 8
  %13 = getelementptr inbounds %struct.lxb_html_parser_t, ptr %12, i32 0, i32 0
  store ptr %11, ptr %13, align 8
  %14 = load ptr, ptr %3, align 8
  %15 = getelementptr inbounds %struct.lxb_html_parser_t, ptr %14, i32 0, i32 1
  %16 = load ptr, ptr %15, align 8
  %17 = call ptr @lxb_html_tree_unref(ptr noundef %16)
  %18 = load ptr, ptr %3, align 8
  %19 = getelementptr inbounds %struct.lxb_html_parser_t, ptr %18, i32 0, i32 1
  store ptr %17, ptr %19, align 8
  %20 = load ptr, ptr %3, align 8
  %21 = call ptr @lexbor_free(ptr noundef %20)
  store ptr %21, ptr %2, align 8
  br label %22

22:                                               ; preds = %7, %6
  %23 = load ptr, ptr %2, align 8
  ret ptr %23
}

; Function Attrs: nounwind uwtable
define hidden ptr @lxb_html_parser_unref(ptr noundef %0) #0 {
  %2 = alloca ptr, align 8
  %3 = alloca ptr, align 8
  store ptr %0, ptr %3, align 8
  %4 = load ptr, ptr %3, align 8
  %5 = icmp eq ptr %4, null
  br i1 %5, label %11, label %6

6:                                                ; preds = %1
  %7 = load ptr, ptr %3, align 8
  %8 = getelementptr inbounds %struct.lxb_html_parser_t, ptr %7, i32 0, i32 7
  %9 = load i64, ptr %8, align 8
  %10 = icmp eq i64 %9, 0
  br i1 %10, label %11, label %12

11:                                               ; preds = %6, %1
  store ptr null, ptr %2, align 8
  br label %25

12:                                               ; preds = %6
  %13 = load ptr, ptr %3, align 8
  %14 = getelementptr inbounds %struct.lxb_html_parser_t, ptr %13, i32 0, i32 7
  %15 = load i64, ptr %14, align 8
  %16 = add i64 %15, -1
  store i64 %16, ptr %14, align 8
  %17 = load ptr, ptr %3, align 8
  %18 = getelementptr inbounds %struct.lxb_html_parser_t, ptr %17, i32 0, i32 7
  %19 = load i64, ptr %18, align 8
  %20 = icmp eq i64 %19, 0
  br i1 %20, label %21, label %24

21:                                               ; preds = %12
  %22 = load ptr, ptr %3, align 8
  %23 = call ptr @lxb_html_parser_destroy(ptr noundef %22)
  br label %24

24:                                               ; preds = %21, %12
  store ptr null, ptr %2, align 8
  br label %25

25:                                               ; preds = %24, %11
  %26 = load ptr, ptr %2, align 8
  ret ptr %26
}