; Function Attrs: nounwind uwtable
define hidden noalias noundef ptr @lxb_html_parser_unref(ptr noundef %0) local_unnamed_addr #0 {
  %2 = icmp eq ptr %0, null
  br i1 %2, label %16, label %3

3:                                                ; preds = %1
  %4 = getelementptr inbounds i8, ptr %0, i64 48
  %5 = load i64, ptr %4, align 8
  %6 = icmp eq i64 %5, 0
  br i1 %6, label %16, label %7

7:                                                ; preds = %3
  %8 = add i64 %5, -1
  store i64 %8, ptr %4, align 8
  %9 = icmp eq i64 %8, 0
  br i1 %9, label %lxb_html_parser_destroy.exit, label %16

lxb_html_parser_destroy.exit:                     ; preds = %7
  %10 = load ptr, ptr %0, align 8
  %11 = tail call ptr @lxb_html_tokenizer_unref(ptr noundef %10) #7
  store ptr %11, ptr %0, align 8
  %12 = getelementptr inbounds i8, ptr %0, i64 8
  %13 = load ptr, ptr %12, align 8
  %14 = tail call ptr @lxb_html_tree_unref(ptr noundef %13) #7
  store ptr %14, ptr %12, align 8
  %15 = tail call ptr @lexbor_free(ptr noundef nonnull %0) #7
  br label %16

16:                                               ; preds = %7, %lxb_html_parser_destroy.exit, %1, %3
  ret ptr null
}